target datalayout = "e-m:e-p270:32:32-p271:32:32-p272:64:64-i64:64-i128:128-f80:128-n8:16:32:64-S128"
target triple = "x86_64-pc-linux-gnu"

%"class.icu_77::StringPiece" = type <{ ptr, i32, [4 x i8] }>
%"class.icu_77::UnicodeString" = type { %"class.icu_77::Replaceable", %"union.icu_77::UnicodeString::StackBufferOrFields" }
%"class.icu_77::Replaceable" = type { %"class.icu_77::UObject" }
%"class.icu_77::UObject" = type { ptr }
%"union.icu_77::UnicodeString::StackBufferOrFields" = type { %struct.anon.0, [32 x i8] }
%struct.anon.0 = type { i16, i32, i32, ptr }
%struct.anon = type { i16, [27 x i16] }

@_ZTVN6icu_777UObjectE = available_externally unnamed_addr constant { [5 x ptr] } { [5 x ptr] [ptr null, ptr @_ZTIN6icu_777UObjectE, ptr @_ZN6icu_777UObjectD1Ev, ptr @_ZN6icu_777UObjectD0Ev, ptr @_ZNK6icu_777UObject17getDynamicClassIDEv] }, align 8

; Function Attrs: inlinehint mustprogress nounwind uwtable
define linkonce_odr void @_ZN6icu_777UObjectC2Ev(ptr noundef nonnull align 8 dereferenceable(8) %0) unnamed_addr #2 comdat align 2 {
  %2 = alloca ptr, align 8
  store ptr %0, ptr %2, align 8, !tbaa !108
  %3 = load ptr, ptr %2, align 8
  store ptr getelementptr inbounds inrange(-16, 24) ({ [5 x ptr] }, ptr @_ZTVN6icu_777UObjectE, i32 0, i32 0, i32 2), ptr %3, align 8, !tbaa !29
  ret void
}

; Function Attrs: inlinehint mustprogress nounwind uwtable
define linkonce_odr void @_ZN6icu_7711ReplaceableC2Ev(ptr noundef nonnull align 8 dereferenceable(8) %0) unnamed_addr #2 comdat align 2 {
  %2 = alloca ptr, align 8
  store ptr %0, ptr %2, align 8, !tbaa !106
  %3 = load ptr, ptr %2, align 8
  call void @_ZN6icu_777UObjectC2Ev(ptr noundef nonnull align 8 dereferenceable(8) %3) #13
  store ptr getelementptr inbounds inrange(-16, 88) ({ [13 x ptr] }, ptr @_ZTVN6icu_7711ReplaceableE, i32 0, i32 0, i32 2), ptr %3, align 8, !tbaa !29
  ret void
}

; Function Attrs: inlinehint mustprogress uwtable
define linkonce_odr void @_ZN6icu_7713UnicodeStringC2Ev(ptr noundef nonnull align 8 dereferenceable(64) %0) unnamed_addr #3 comdat align 2 {
  %2 = alloca ptr, align 8
  store ptr %0, ptr %2, align 8, !tbaa !31
  %3 = load ptr, ptr %2, align 8
  call void @_ZN6icu_7711ReplaceableC2Ev(ptr noundef nonnull align 8 dereferenceable(8) %3)
  store ptr getelementptr inbounds inrange(-16, 88) ({ [13 x ptr] }, ptr @_ZTVN6icu_7713UnicodeStringE, i32 0, i32 0, i32 2), ptr %3, align 8, !tbaa !29
  %4 = getelementptr inbounds nuw %"class.icu_77::UnicodeString", ptr %3, i32 0, i32 1
  %5 = getelementptr inbounds nuw %struct.anon, ptr %4, i32 0, i32 0
  store i16 2, ptr %5, align 8, !tbaa !33
  ret void
}

; Function Attrs: inlinehint mustprogress nounwind uwtable
define internal noundef signext i8 @_ZL9U_SUCCESS10UErrorCode(i32 noundef %0) #2 {
  %2 = alloca i32, align 4
  store i32 %0, ptr %2, align 4, !tbaa !15
  %3 = load i32, ptr %2, align 4, !tbaa !15
  %4 = icmp sle i32 %3, 0
  %5 = zext i1 %4 to i8
  ret i8 %5
}

; Function Attrs: mustprogress uwtable
define void @_ZNK6icu_774IDNA18labelToUnicodeUTF8ENS_11StringPieceERNS_8ByteSinkERNS_8IDNAInfoER10UErrorCode(ptr noundef nonnull align 8 dereferenceable(8) %0, ptr %1, i32 %2, ptr noundef nonnull align 8 dereferenceable(8) %3, ptr noundef nonnull align 4 dereferenceable(11) %4, ptr noundef nonnull align 4 dereferenceable(4) %5) unnamed_addr #1 align 2 personality ptr @__gxx_personality_v0 {
  %7 = alloca %"class.icu_77::StringPiece", align 8
  %8 = alloca ptr, align 8
  %9 = alloca ptr, align 8
  %10 = alloca ptr, align 8
  %11 = alloca ptr, align 8
  %12 = alloca %"class.icu_77::UnicodeString", align 8
  %13 = alloca %"class.icu_77::UnicodeString", align 8
  %14 = alloca %"class.icu_77::StringPiece", align 8
  %15 = alloca ptr, align 8
  %16 = alloca i32, align 4
  %17 = getelementptr inbounds nuw { ptr, i32 }, ptr %7, i32 0, i32 0
  store ptr %1, ptr %17, align 8
  %18 = getelementptr inbounds nuw { ptr, i32 }, ptr %7, i32 0, i32 1
  store i32 %2, ptr %18, align 8
  store ptr %0, ptr %8, align 8, !tbaa !23
  store ptr %3, ptr %9, align 8, !tbaa !25
  store ptr %4, ptr %10, align 8, !tbaa !27
  store ptr %5, ptr %11, align 8, !tbaa !22
  %19 = load ptr, ptr %8, align 8
  %20 = load ptr, ptr %11, align 8, !tbaa !22
  %21 = load i32, ptr %20, align 4, !tbaa !15
  %22 = call noundef signext i8 @_ZL9U_SUCCESS10UErrorCode(i32 noundef %21)
  %23 = icmp ne i8 %22, 0
  br i1 %23, label %24, label %48

24:                                               ; preds = %6
  call void @llvm.lifetime.start.p0(i64 64, ptr %12) #13
  call void @_ZN6icu_7713UnicodeStringC2Ev(ptr noundef nonnull align 8 dereferenceable(64) %12)
  call void @llvm.lifetime.start.p0(i64 64, ptr %13) #13
  call void @llvm.memcpy.p0.p0.i64(ptr align 8 %14, ptr align 8 %7, i64 16, i1 false)
  %25 = getelementptr inbounds nuw { ptr, i32 }, ptr %14, i32 0, i32 0
  %26 = load ptr, ptr %25, align 8
  %27 = getelementptr inbounds nuw { ptr, i32 }, ptr %14, i32 0, i32 1
  %28 = load i32, ptr %27, align 8
  invoke void @_ZN6icu_7713UnicodeString8fromUTF8ENS_11StringPieceE(ptr dead_on_unwind writable sret(%"class.icu_77::UnicodeString") align 8 %13, ptr %26, i32 %28)
          to label %29 unwind label %39

29:                                               ; preds = %24
  %30 = load ptr, ptr %10, align 8, !tbaa !27
  %31 = load ptr, ptr %11, align 8, !tbaa !22
  %32 = load ptr, ptr %19, align 8, !tbaa !29
  %33 = getelementptr inbounds ptr, ptr %32, i64 4
  %34 = load ptr, ptr %33, align 8
  %35 = invoke noundef nonnull align 8 dereferenceable(64) ptr %34(ptr noundef nonnull align 8 dereferenceable(8) %19, ptr noundef nonnull align 8 dereferenceable(64) %13, ptr noundef nonnull align 8 dereferenceable(64) %12, ptr noundef nonnull align 4 dereferenceable(11) %30, ptr noundef nonnull align 4 dereferenceable(4) %31)
          to label %36 unwind label %43

36:                                               ; preds = %29
  %37 = load ptr, ptr %9, align 8, !tbaa !25
  invoke void @_ZNK6icu_7713UnicodeString6toUTF8ERNS_8ByteSinkE(ptr noundef nonnull align 8 dereferenceable(64) %35, ptr noundef nonnull align 8 dereferenceable(8) %37)
          to label %38 unwind label %43

38:                                               ; preds = %36
  call void @_ZN6icu_7713UnicodeStringD1Ev(ptr noundef nonnull align 8 dereferenceable(64) %13) #13
  call void @llvm.lifetime.end.p0(i64 64, ptr %13) #13
  call void @_ZN6icu_7713UnicodeStringD1Ev(ptr noundef nonnull align 8 dereferenceable(64) %12) #13
  call void @llvm.lifetime.end.p0(i64 64, ptr %12) #13
  br label %48

39:                                               ; preds = %24
  %40 = landingpad { ptr, i32 }
          cleanup
  %41 = extractvalue { ptr, i32 } %40, 0
  store ptr %41, ptr %15, align 8
  %42 = extractvalue { ptr, i32 } %40, 1
  store i32 %42, ptr %16, align 4
  br label %47

43:                                               ; preds = %36, %29
  %44 = landingpad { ptr, i32 }
          cleanup
  %45 = extractvalue { ptr, i32 } %44, 0
  store ptr %45, ptr %15, align 8
  %46 = extractvalue { ptr, i32 } %44, 1
  store i32 %46, ptr %16, align 4
  call void @_ZN6icu_7713UnicodeStringD1Ev(ptr noundef nonnull align 8 dereferenceable(64) %13) #13
  br label %47

47:                                               ; preds = %43, %39
  call void @llvm.lifetime.end.p0(i64 64, ptr %13) #13
  call void @_ZN6icu_7713UnicodeStringD1Ev(ptr noundef nonnull align 8 dereferenceable(64) %12) #13
  call void @llvm.lifetime.end.p0(i64 64, ptr %12) #13
  br label %49

48:                                               ; preds = %38, %6
  ret void

49:                                               ; preds = %47
  %50 = load ptr, ptr %15, align 8
  %51 = load i32, ptr %16, align 4
  %52 = insertvalue { ptr, i32 } poison, ptr %50, 0
  %53 = insertvalue { ptr, i32 } %52, i32 %51, 1
  resume { ptr, i32 } %53
}